; Function Attrs: null_pointer_is_valid sspstrong uwtable
define internal fastcc noundef i32 @executed(ptr noundef %0, ptr noundef readonly captures(none) %1, ptr noundef %2, i32 noundef %3, i32 noundef range(i32 0, 2) %4) unnamed_addr #0 {
  %6 = getelementptr inbounds nuw i8, ptr %1, i64 408
  %7 = load ptr, ptr %6, align 8
  %8 = tail call ptr @tvb_get_string_enc(ptr noundef %7, ptr noundef %0, i32 noundef %3, i32 noundef 9, i32 noundef 0)
  %9 = tail call i64 @strtoul(ptr noundef captures(none) %8, ptr noundef null, i32 noundef 10) #4
  %10 = trunc i64 %9 to i32
  %11 = load i32, ptr @hf_nasdaq_itch_order_reference, align 4
  %12 = tail call ptr @proto_tree_add_uint(ptr noundef %2, i32 noundef %11, ptr noundef %0, i32 noundef %3, i32 noundef 9, i32 noundef %10)
  %13 = getelementptr inbounds nuw i8, ptr %1, i64 8
  %14 = load ptr, ptr %13, align 8
  tail call void (ptr, i32, ptr, ...) @col_append_fstr(ptr noundef %14, i32 noundef 25, ptr noundef nonnull @.str.125, i32 noundef %10)
  %15 = add i32 %3, 9
  %16 = load i32, ptr @hf_nasdaq_itch_executed, align 4
  %.not.i = icmp eq i32 %4, 0
  %17 = select i1 %.not.i, i32 6, i32 10
  %18 = load ptr, ptr %6, align 8
  %19 = tail call ptr @tvb_get_string_enc(ptr noundef %18, ptr noundef %0, i32 noundef %15, i32 noundef %17, i32 noundef 0)
  %20 = tail call i64 @strtoul(ptr noundef captures(none) %19, ptr noundef null, i32 noundef 10) #4
  %21 = trunc i64 %20 to i32
  %22 = tail call ptr @proto_tree_add_uint(ptr noundef %2, i32 noundef %16, ptr noundef %0, i32 noundef %15, i32 noundef %17, i32 noundef %21)
  %23 = load ptr, ptr %13, align 8
  tail call void (ptr, i32, ptr, ...) @col_append_fstr(ptr noundef %23, i32 noundef 25, ptr noundef nonnull @.str.126, i32 noundef %21)
  %24 = add i32 %17, %15
  %25 = load i32, ptr @hf_nasdaq_itch_match, align 4
  %26 = tail call ptr @proto_tree_add_item(ptr noundef %2, i32 noundef %25, ptr noundef %0, i32 noundef %24, i32 noundef 9, i32 noundef 0)
  %27 = add i32 %24, 9
  ret i32 %27
}